target datalayout = "e-m:e-p270:32:32-p271:32:32-p272:64:64-i64:64-i128:128-f80:128-n8:16:32:64-S128"
target triple = "x86_64-pc-linux-gnu"

%"class.clang::driver::Action" = type { ptr, i32, i32, %"class.llvm::SmallVector", i8, i32, i32, ptr, ptr }
%"class.llvm::SmallVector" = type { %"class.llvm::SmallVectorImpl", %"struct.llvm::SmallVectorStorage" }
%"class.llvm::SmallVectorImpl" = type { %"class.llvm::SmallVectorTemplateBase" }
%"class.llvm::SmallVectorTemplateBase" = type { %"class.llvm::SmallVectorTemplateCommon" }
%"class.llvm::SmallVectorTemplateCommon" = type { %"class.llvm::SmallVectorBase" }
%"class.llvm::SmallVectorBase" = type { ptr, i32, i32 }
%"struct.llvm::SmallVectorStorage" = type { [24 x i8] }
%"class.clang::driver::OffloadAction" = type { %"class.clang::driver::Action", ptr, %"class.llvm::SmallVector.7" }
%"class.llvm::SmallVector.7" = type { %"class.llvm::SmallVectorImpl.8", %"struct.llvm::SmallVectorStorage.11" }
%"class.llvm::SmallVectorImpl.8" = type { %"class.llvm::SmallVectorTemplateBase.9" }
%"class.llvm::SmallVectorTemplateBase.9" = type { %"class.llvm::SmallVectorTemplateCommon.10" }
%"class.llvm::SmallVectorTemplateCommon.10" = type { %"class.llvm::SmallVectorBase" }
%"struct.llvm::SmallVectorStorage.11" = type { [24 x i8] }
%"class.llvm::function_ref" = type { ptr, i64 }

; Function Attrs: mustprogress nounwind uwtable
define linkonce_odr hidden noundef ptr @_ZNK4llvm25SmallVectorTemplateCommonIPKN5clang6driver9ToolChainEvE5beginEv(ptr noundef nonnull align 8 dereferenceable(16) %0) #0 comdat align 2 {
  %2 = alloca ptr, align 8
  store ptr %0, ptr %2, align 8
  %3 = load ptr, ptr %2, align 8
  %4 = getelementptr inbounds nuw %"class.llvm::SmallVectorBase", ptr %3, i32 0, i32 0
  %5 = load ptr, ptr %4, align 8
  ret ptr %5
}

; Function Attrs: mustprogress nounwind uwtable
define linkonce_odr hidden noundef ptr @_ZNK4llvm25SmallVectorTemplateCommonIPN5clang6driver6ActionEvE3endEv(ptr noundef nonnull align 8 dereferenceable(16) %0) #0 comdat align 2 {
  %2 = alloca ptr, align 8
  store ptr %0, ptr %2, align 8
  %3 = load ptr, ptr %2, align 8
  %4 = call noundef ptr @_ZNK4llvm25SmallVectorTemplateCommonIPN5clang6driver6ActionEvE5beginEv(ptr noundef nonnull align 8 dereferenceable(16) %3)
  %5 = call noundef i64 @_ZNK4llvm15SmallVectorBaseIjE4sizeEv(ptr noundef nonnull align 8 dereferenceable(16) %3)
  %6 = getelementptr inbounds ptr, ptr %4, i64 %5
  ret ptr %6
}

; Function Attrs: mustprogress nounwind uwtable
define linkonce_odr hidden noundef ptr @_ZNK4llvm25SmallVectorTemplateCommonIPN5clang6driver6ActionEvE5beginEv(ptr noundef nonnull align 8 dereferenceable(16) %0) #0 comdat align 2 {
  %2 = alloca ptr, align 8
  store ptr %0, ptr %2, align 8
  %3 = load ptr, ptr %2, align 8
  %4 = getelementptr inbounds nuw %"class.llvm::SmallVectorBase", ptr %3, i32 0, i32 0
  %5 = load ptr, ptr %4, align 8
  ret ptr %5
}

; Function Attrs: mustprogress nounwind uwtable
define linkonce_odr hidden void @_ZNK4llvm12function_refIFvPN5clang6driver6ActionEPKNS2_9ToolChainEPKcEEclES4_S7_S9_(ptr noundef nonnull align 8 dereferenceable(16) %0, ptr noundef %1, ptr noundef %2, ptr noundef %3) #0 comdat align 2 {
  %5 = alloca ptr, align 8
  %6 = alloca ptr, align 8
  %7 = alloca ptr, align 8
  %8 = alloca ptr, align 8
  store ptr %0, ptr %5, align 8
  store ptr %1, ptr %6, align 8
  store ptr %2, ptr %7, align 8
  store ptr %3, ptr %8, align 8
  %9 = load ptr, ptr %5, align 8
  %10 = getelementptr inbounds nuw %"class.llvm::function_ref", ptr %9, i32 0, i32 0
  %11 = load ptr, ptr %10, align 8
  %12 = getelementptr inbounds nuw %"class.llvm::function_ref", ptr %9, i32 0, i32 1
  %13 = load i64, ptr %12, align 8
  %14 = load ptr, ptr %6, align 8
  %15 = load ptr, ptr %7, align 8
  %16 = load ptr, ptr %8, align 8
  call void %11(i64 noundef %13, ptr noundef %14, ptr noundef %15, ptr noundef %16)
  ret void
}

; Function Attrs: mustprogress nounwind uwtable
define linkonce_odr hidden noundef ptr @_ZNK5clang6driver6Action17getOffloadingArchEv(ptr noundef nonnull align 8 dereferenceable(88) %0) #0 comdat align 2 {
  %2 = alloca ptr, align 8
  store ptr %0, ptr %2, align 8
  %3 = load ptr, ptr %2, align 8
  %4 = getelementptr inbounds nuw %"class.clang::driver::Action", ptr %3, i32 0, i32 7
  %5 = load ptr, ptr %4, align 8
  ret ptr %5
}

; Function Attrs: mustprogress nounwind uwtable
define linkonce_odr hidden noundef nonnull align 8 dereferenceable(8) ptr @_ZNK4llvm25SmallVectorTemplateCommonIPN5clang6driver6ActionEvE5frontEv(ptr noundef nonnull align 8 dereferenceable(16) %0) #0 comdat align 2 {
  %2 = alloca ptr, align 8
  store ptr %0, ptr %2, align 8
  %3 = load ptr, ptr %2, align 8
  %4 = call noundef ptr @_ZNK4llvm25SmallVectorTemplateCommonIPN5clang6driver6ActionEvE5beginEv(ptr noundef nonnull align 8 dereferenceable(16) %3)
  %5 = getelementptr inbounds ptr, ptr %4, i64 0
  ret ptr %5
}

; Function Attrs: mustprogress nounwind uwtable
define linkonce_odr hidden noundef nonnull align 8 dereferenceable(40) ptr @_ZNK5clang6driver6Action9getInputsEv(ptr noundef nonnull align 8 dereferenceable(88) %0) #0 comdat align 2 {
  %2 = alloca ptr, align 8
  store ptr %0, ptr %2, align 8
  %3 = load ptr, ptr %2, align 8
  %4 = getelementptr inbounds nuw %"class.clang::driver::Action", ptr %3, i32 0, i32 3
  ret ptr %4
}

; Function Attrs: mustprogress nounwind uwtable
define dso_local void @_ZNK5clang6driver13OffloadAction24doOnEachDeviceDependenceERKN4llvm12function_refIFvPNS0_6ActionEPKNS0_9ToolChainEPKcEEE(ptr noundef nonnull align 8 dereferenceable(136) %0, ptr noundef nonnull align 8 dereferenceable(16) %1) #0 align 2 {
  %3 = alloca ptr, align 8
  %4 = alloca ptr, align 8
  %5 = alloca ptr, align 8
  %6 = alloca ptr, align 8
  %7 = alloca ptr, align 8
  store ptr %0, ptr %3, align 8
  store ptr %1, ptr %4, align 8
  %8 = load ptr, ptr %3, align 8
  %9 = call noundef nonnull align 8 dereferenceable(40) ptr @_ZNK5clang6driver6Action9getInputsEv(ptr noundef nonnull align 8 dereferenceable(88) %8)
  %10 = call noundef ptr @_ZNK4llvm25SmallVectorTemplateCommonIPN5clang6driver6ActionEvE5beginEv(ptr noundef nonnull align 8 dereferenceable(16) %9)
  store ptr %10, ptr %5, align 8
  %11 = call noundef nonnull align 8 dereferenceable(40) ptr @_ZNK5clang6driver6Action9getInputsEv(ptr noundef nonnull align 8 dereferenceable(88) %8)
  %12 = call noundef ptr @_ZNK4llvm25SmallVectorTemplateCommonIPN5clang6driver6ActionEvE3endEv(ptr noundef nonnull align 8 dereferenceable(16) %11)
  store ptr %12, ptr %6, align 8
  %13 = load ptr, ptr %5, align 8
  %14 = load ptr, ptr %6, align 8
  %15 = icmp eq ptr %13, %14
  br i1 %15, label %16, label %17

16:                                               ; preds = %2
  br label %45

17:                                               ; preds = %2
  %18 = getelementptr inbounds nuw %"class.clang::driver::OffloadAction", ptr %8, i32 0, i32 1
  %19 = load ptr, ptr %18, align 8
  %20 = icmp ne ptr %19, null
  br i1 %20, label %21, label %24

21:                                               ; preds = %17
  %22 = load ptr, ptr %5, align 8
  %23 = getelementptr inbounds ptr, ptr %22, i32 1
  store ptr %23, ptr %5, align 8
  br label %24

24:                                               ; preds = %21, %17
  %25 = getelementptr inbounds nuw %"class.clang::driver::OffloadAction", ptr %8, i32 0, i32 2
  %26 = call noundef ptr @_ZNK4llvm25SmallVectorTemplateCommonIPKN5clang6driver9ToolChainEvE5beginEv(ptr noundef nonnull align 8 dereferenceable(16) %25)
  store ptr %26, ptr %7, align 8
  br label %27

27:                                               ; preds = %40, %24
  %28 = load ptr, ptr %5, align 8
  %29 = load ptr, ptr %6, align 8
  %30 = icmp ne ptr %28, %29
  br i1 %30, label %31, label %45

31:                                               ; preds = %27
  %32 = load ptr, ptr %4, align 8
  %33 = load ptr, ptr %5, align 8
  %34 = load ptr, ptr %33, align 8
  %35 = load ptr, ptr %7, align 8
  %36 = load ptr, ptr %35, align 8
  %37 = load ptr, ptr %5, align 8
  %38 = load ptr, ptr %37, align 8
  %39 = call noundef ptr @_ZNK5clang6driver6Action17getOffloadingArchEv(ptr noundef nonnull align 8 dereferenceable(88) %38)
  call void @_ZNK4llvm12function_refIFvPN5clang6driver6ActionEPKNS2_9ToolChainEPKcEEclES4_S7_S9_(ptr noundef nonnull align 8 dereferenceable(16) %32, ptr noundef %34, ptr noundef %36, ptr noundef %39)
  br label %40

40:                                               ; preds = %31
  %41 = load ptr, ptr %5, align 8
  %42 = getelementptr inbounds ptr, ptr %41, i32 1
  store ptr %42, ptr %5, align 8
  %43 = load ptr, ptr %7, align 8
  %44 = getelementptr inbounds ptr, ptr %43, i32 1
  store ptr %44, ptr %7, align 8
  br label %27, !llvm.loop !7

45:                                               ; preds = %27, %16
  ret void
}

; Function Attrs: mustprogress nounwind uwtable
define dso_local void @_ZNK5clang6driver13OffloadAction18doOnHostDependenceERKN4llvm12function_refIFvPNS0_6ActionEPKNS0_9ToolChainEPKcEEE(ptr noundef nonnull align 8 dereferenceable(136) %0, ptr noundef nonnull align 8 dereferenceable(16) %1) #0 align 2 {
  %3 = alloca ptr, align 8
  %4 = alloca ptr, align 8
  %5 = alloca ptr, align 8
  store ptr %0, ptr %3, align 8
  store ptr %1, ptr %4, align 8
  %6 = load ptr, ptr %3, align 8
  %7 = getelementptr inbounds nuw %"class.clang::driver::OffloadAction", ptr %6, i32 0, i32 1
  %8 = load ptr, ptr %7, align 8
  %9 = icmp ne ptr %8, null
  br i1 %9, label %11, label %10

10:                                               ; preds = %2
  br label %21

11:                                               ; preds = %2
  %12 = call noundef nonnull align 8 dereferenceable(40) ptr @_ZNK5clang6driver6Action9getInputsEv(ptr noundef nonnull align 8 dereferenceable(88) %6)
  %13 = call noundef nonnull align 8 dereferenceable(8) ptr @_ZNK4llvm25SmallVectorTemplateCommonIPN5clang6driver6ActionEvE5frontEv(ptr noundef nonnull align 8 dereferenceable(16) %12)
  %14 = load ptr, ptr %13, align 8
  store ptr %14, ptr %5, align 8
  %15 = load ptr, ptr %4, align 8
  %16 = load ptr, ptr %5, align 8
  %17 = getelementptr inbounds nuw %"class.clang::driver::OffloadAction", ptr %6, i32 0, i32 1
  %18 = load ptr, ptr %17, align 8
  %19 = load ptr, ptr %5, align 8
  %20 = call noundef ptr @_ZNK5clang6driver6Action17getOffloadingArchEv(ptr noundef nonnull align 8 dereferenceable(88) %19)
  call void @_ZNK4llvm12function_refIFvPN5clang6driver6ActionEPKNS2_9ToolChainEPKcEEclES4_S7_S9_(ptr noundef nonnull align 8 dereferenceable(16) %15, ptr noundef %16, ptr noundef %18, ptr noundef %20)
  br label %21

21:                                               ; preds = %11, %10
  ret void
}

; Function Attrs: mustprogress nounwind uwtable
define dso_local void @_ZNK5clang6driver13OffloadAction18doOnEachDependenceERKN4llvm12function_refIFvPNS0_6ActionEPKNS0_9ToolChainEPKcEEE(ptr noundef nonnull align 8 dereferenceable(136) %0, ptr noundef nonnull align 8 dereferenceable(16) %1) #0 align 2 {
  %3 = alloca ptr, align 8
  %4 = alloca ptr, align 8
  store ptr %0, ptr %3, align 8
  store ptr %1, ptr %4, align 8
  %5 = load ptr, ptr %3, align 8
  %6 = load ptr, ptr %4, align 8
  call void @_ZNK5clang6driver13OffloadAction18doOnHostDependenceERKN4llvm12function_refIFvPNS0_6ActionEPKNS0_9ToolChainEPKcEEE(ptr noundef nonnull align 8 dereferenceable(136) %5, ptr noundef nonnull align 8 dereferenceable(16) %6)
  %7 = load ptr, ptr %4, align 8
  call void @_ZNK5clang6driver13OffloadAction24doOnEachDeviceDependenceERKN4llvm12function_refIFvPNS0_6ActionEPKNS0_9ToolChainEPKcEEE(ptr noundef nonnull align 8 dereferenceable(136) %5, ptr noundef nonnull align 8 dereferenceable(16) %7)
  ret void
}