; Function Attrs: mustprogress nounwind uwtable
define dso_local void @_ZNK5clang6driver13OffloadAction18doOnEachDependenceERKN4llvm12function_refIFvPNS0_6ActionEPKNS0_9ToolChainEPKcEEE(ptr noundef nonnull align 8 dereferenceable(136) %0, ptr nocapture noundef nonnull readonly align 8 dereferenceable(16) %1) local_unnamed_addr #0 align 2 {
  %3 = getelementptr inbounds nuw i8, ptr %0, i64 88
  %4 = load ptr, ptr %3, align 8
  %.not.i = icmp eq ptr %4, null
  br i1 %.not.i, label %_ZNK5clang6driver13OffloadAction18doOnHostDependenceERKN4llvm12function_refIFvPNS0_6ActionEPKNS0_9ToolChainEPKcEEE.exit, label %5

5:                                                ; preds = %2
  %6 = getelementptr inbounds nuw i8, ptr %0, i64 16
  %7 = load ptr, ptr %6, align 8
  %8 = load ptr, ptr %7, align 8
  %9 = getelementptr inbounds nuw i8, ptr %8, i64 72
  %10 = load ptr, ptr %9, align 8
  %11 = load ptr, ptr %1, align 8
  %12 = getelementptr inbounds nuw i8, ptr %1, i64 8
  %13 = load i64, ptr %12, align 8
  tail call void %11(i64 noundef %13, ptr noundef %8, ptr noundef nonnull %4, ptr noundef %10) #11
  br label %_ZNK5clang6driver13OffloadAction18doOnHostDependenceERKN4llvm12function_refIFvPNS0_6ActionEPKNS0_9ToolChainEPKcEEE.exit

_ZNK5clang6driver13OffloadAction18doOnHostDependenceERKN4llvm12function_refIFvPNS0_6ActionEPKNS0_9ToolChainEPKcEEE.exit: ; preds = %2, %5
  %14 = getelementptr inbounds nuw i8, ptr %0, i64 16
  %15 = load ptr, ptr %14, align 8
  %16 = tail call noundef i64 @_ZNK4llvm15SmallVectorBaseIjE4sizeEv(ptr noundef nonnull align 8 dereferenceable(16) %14) #11
  %.idx.i = shl nsw i64 %16, 3
  %17 = getelementptr inbounds i8, ptr %15, i64 %.idx.i
  %18 = icmp eq i64 %16, 0
  br i1 %18, label %_ZNK5clang6driver13OffloadAction24doOnEachDeviceDependenceERKN4llvm12function_refIFvPNS0_6ActionEPKNS0_9ToolChainEPKcEEE.exit, label %19

19:                                               ; preds = %_ZNK5clang6driver13OffloadAction18doOnHostDependenceERKN4llvm12function_refIFvPNS0_6ActionEPKNS0_9ToolChainEPKcEEE.exit
  %20 = load ptr, ptr %3, align 8
  %.not.i3 = icmp eq ptr %20, null
  %spec.select.idx.i = select i1 %.not.i3, i64 0, i64 8
  %.not1516.i = icmp eq i64 %spec.select.idx.i, %.idx.i
  br i1 %.not1516.i, label %_ZNK5clang6driver13OffloadAction24doOnEachDeviceDependenceERKN4llvm12function_refIFvPNS0_6ActionEPKNS0_9ToolChainEPKcEEE.exit, label %.lr.ph.i

.lr.ph.i:                                         ; preds = %19
  %spec.select.i = getelementptr inbounds i8, ptr %15, i64 %spec.select.idx.i
  %21 = getelementptr inbounds nuw i8, ptr %0, i64 96
  %22 = load ptr, ptr %21, align 8
  %23 = getelementptr inbounds nuw i8, ptr %1, i64 8
  br label %24

24:                                               ; preds = %24, %.lr.ph.i
  %.018.i = phi ptr [ %22, %.lr.ph.i ], [ %32, %24 ]
  %.117.i = phi ptr [ %spec.select.i, %.lr.ph.i ], [ %31, %24 ]
  %25 = load ptr, ptr %.117.i, align 8
  %26 = load ptr, ptr %.018.i, align 8
  %27 = getelementptr inbounds nuw i8, ptr %25, i64 72
  %28 = load ptr, ptr %27, align 8
  %29 = load ptr, ptr %1, align 8
  %30 = load i64, ptr %23, align 8
  tail call void %29(i64 noundef %30, ptr noundef %25, ptr noundef %26, ptr noundef %28) #11
  %31 = getelementptr inbounds i8, ptr %.117.i, i64 8
  %32 = getelementptr inbounds i8, ptr %.018.i, i64 8
  %.not15.i = icmp eq ptr %31, %17
  br i1 %.not15.i, label %_ZNK5clang6driver13OffloadAction24doOnEachDeviceDependenceERKN4llvm12function_refIFvPNS0_6ActionEPKNS0_9ToolChainEPKcEEE.exit, label %24, !llvm.loop !11

_ZNK5clang6driver13OffloadAction24doOnEachDeviceDependenceERKN4llvm12function_refIFvPNS0_6ActionEPKNS0_9ToolChainEPKcEEE.exit: ; preds = %24, %_ZNK5clang6driver13OffloadAction18doOnHostDependenceERKN4llvm12function_refIFvPNS0_6ActionEPKNS0_9ToolChainEPKcEEE.exit, %19
  ret void
}